; Function Attrs: mustprogress uwtable
define void @_ZN8facebook5velox6memory9MmapArena15removeFreeBlockERSt17_Rb_tree_iteratorISt4pairIKmmEE(ptr noundef nonnull align 8 dereferenceable(120) %this, ptr nocapture noundef nonnull readonly align 8 dereferenceable(8) %iter) local_unnamed_addr #1 align 2 personality ptr @__gxx_personality_v0 {
entry:
  %0 = load ptr, ptr %iter, align 8
  %_M_storage.i.i = getelementptr inbounds i8, ptr %0, i64 32
  %1 = load i64, ptr %_M_storage.i.i, align 8
  %second = getelementptr inbounds i8, ptr %0, i64 40
  %2 = load i64, ptr %second, align 8
  tail call void @_ZN8facebook5velox6memory9MmapArena16removeFromLookupEmm(ptr noundef nonnull align 8 dereferenceable(120) %this, i64 noundef %1, i64 noundef %2)
  %agg.tmp.sroa.0.0.copyload = load ptr, ptr %iter, align 8
  %add.ptr.i.i.i = getelementptr inbounds i8, ptr %this, i64 32
  %call.i1.i.i = tail call noundef nonnull ptr @_ZSt28_Rb_tree_rebalance_for_erasePSt18_Rb_tree_node_baseRS_(ptr noundef %agg.tmp.sroa.0.0.copyload, ptr noundef nonnull align 8 dereferenceable(32) %add.ptr.i.i.i) #16
  tail call void @_ZdlPv(ptr noundef nonnull %call.i1.i.i) #19
  %_M_node_count.i.i.i = getelementptr inbounds i8, ptr %this, i64 64
  %3 = load i64, ptr %_M_node_count.i.i.i, align 8
  %dec.i.i.i = add i64 %3, -1
  store i64 %dec.i.i.i, ptr %_M_node_count.i.i.i, align 8
  ret void
}